target datalayout = "e-m:e-p270:32:32-p271:32:32-p272:64:64-i64:64-i128:128-f80:128-n8:16:32:64-S128"
target triple = "x86_64-unknown-linux-gnu"

%struct.Node = type { i32, ptr, ptr, ptr, ptr, ptr, ptr, ptr, ptr, ptr, ptr, ptr, ptr, ptr, ptr, ptr, ptr, i8, ptr, ptr, ptr, ptr, ptr, ptr, i64, i64, ptr, ptr, ptr, ptr, ptr, ptr, ptr, i64, x86_fp80 }
%struct.Token = type { i32, ptr, i64, x86_fp80, ptr, i32, ptr, ptr, ptr, ptr, i32, i32, i8, i8, ptr, ptr }
%struct.Type = type { i32, i32, i32, i8, i8, ptr, ptr, ptr, ptr, i32, ptr, ptr, ptr, i8, i8, ptr, ptr, i8, ptr }

@.str.23 = private unnamed_addr constant [2 x i8] c"(\00", align 1
@.str.24 = private unnamed_addr constant [2 x i8] c")\00", align 1
@.str.42 = private unnamed_addr constant [9 x i8] c"volatile\00", align 1
@.str.52 = private unnamed_addr constant [7 x i8] c"inline\00", align 1
@.str.122 = private unnamed_addr constant [24 x i8] c"expected string literal\00", align 1

; Function Attrs: nounwind uwtable
define internal ptr @new_node(i32 noundef %kind, ptr noundef %tok) #0 {
entry:
  %kind.addr = alloca i32, align 4
  %tok.addr = alloca ptr, align 8
  %node = alloca ptr, align 8
  store i32 %kind, ptr %kind.addr, align 4
  store ptr %tok, ptr %tok.addr, align 8
  %call = call noalias ptr @calloc(i64 noundef 1, i64 noundef 288) #8
  store ptr %call, ptr %node, align 8
  %0 = load i32, ptr %kind.addr, align 4
  %1 = load ptr, ptr %node, align 8
  %kind1 = getelementptr inbounds %struct.Node, ptr %1, i32 0, i32 0
  store i32 %0, ptr %kind1, align 16
  %2 = load ptr, ptr %tok.addr, align 8
  %3 = load ptr, ptr %node, align 8
  %tok2 = getelementptr inbounds %struct.Node, ptr %3, i32 0, i32 3
  store ptr %2, ptr %tok2, align 8
  %4 = load ptr, ptr %node, align 8
  ret ptr %4
}

; Function Attrs: nounwind uwtable
define internal ptr @asm_stmt(ptr noundef %rest, ptr noundef %tok) #0 {
entry:
  %rest.addr = alloca ptr, align 8
  %tok.addr = alloca ptr, align 8
  %node = alloca ptr, align 8
  store ptr %rest, ptr %rest.addr, align 8
  store ptr %tok, ptr %tok.addr, align 8
  %0 = load ptr, ptr %tok.addr, align 8
  %call = call ptr @new_node(i32 noundef 45, ptr noundef %0)
  store ptr %call, ptr %node, align 8
  %1 = load ptr, ptr %tok.addr, align 8
  %next = getelementptr inbounds %struct.Token, ptr %1, i32 0, i32 1
  %2 = load ptr, ptr %next, align 8
  store ptr %2, ptr %tok.addr, align 8
  br label %while.cond

while.cond:                                       ; preds = %while.body, %entry
  %3 = load ptr, ptr %tok.addr, align 8
  %call1 = call zeroext i1 @equal(ptr noundef %3, ptr noundef @.str.42)
  br i1 %call1, label %lor.end, label %lor.rhs

lor.rhs:                                          ; preds = %while.cond
  %4 = load ptr, ptr %tok.addr, align 8
  %call2 = call zeroext i1 @equal(ptr noundef %4, ptr noundef @.str.52)
  br label %lor.end

lor.end:                                          ; preds = %lor.rhs, %while.cond
  %5 = phi i1 [ true, %while.cond ], [ %call2, %lor.rhs ]
  br i1 %5, label %while.body, label %while.end

while.body:                                       ; preds = %lor.end
  %6 = load ptr, ptr %tok.addr, align 8
  %next3 = getelementptr inbounds %struct.Token, ptr %6, i32 0, i32 1
  %7 = load ptr, ptr %next3, align 8
  store ptr %7, ptr %tok.addr, align 8
  br label %while.cond, !llvm.loop !52

while.end:                                        ; preds = %lor.end
  %8 = load ptr, ptr %tok.addr, align 8
  %call4 = call ptr @skip(ptr noundef %8, ptr noundef @.str.23)
  store ptr %call4, ptr %tok.addr, align 8
  %9 = load ptr, ptr %tok.addr, align 8
  %kind = getelementptr inbounds %struct.Token, ptr %9, i32 0, i32 0
  %10 = load i32, ptr %kind, align 16
  %cmp = icmp ne i32 %10, 3
  br i1 %cmp, label %if.then, label %lor.lhs.false

lor.lhs.false:                                    ; preds = %while.end
  %11 = load ptr, ptr %tok.addr, align 8
  %ty = getelementptr inbounds %struct.Token, ptr %11, i32 0, i32 6
  %12 = load ptr, ptr %ty, align 16
  %base = getelementptr inbounds %struct.Type, ptr %12, i32 0, i32 6
  %13 = load ptr, ptr %base, align 8
  %kind5 = getelementptr inbounds %struct.Type, ptr %13, i32 0, i32 0
  %14 = load i32, ptr %kind5, align 8
  %cmp6 = icmp ne i32 %14, 2
  br i1 %cmp6, label %if.then, label %if.end

if.then:                                          ; preds = %lor.lhs.false, %while.end
  %15 = load ptr, ptr %tok.addr, align 8
  call void (ptr, ptr, ...) @error_tok(ptr noundef %15, ptr noundef @.str.122) #9
  unreachable

if.end:                                           ; preds = %lor.lhs.false
  %16 = load ptr, ptr %tok.addr, align 8
  %str = getelementptr inbounds %struct.Token, ptr %16, i32 0, i32 7
  %17 = load ptr, ptr %str, align 8
  %18 = load ptr, ptr %node, align 8
  %asm_str = getelementptr inbounds %struct.Node, ptr %18, i32 0, i32 26
  store ptr %17, ptr %asm_str, align 16
  %19 = load ptr, ptr %tok.addr, align 8
  %next7 = getelementptr inbounds %struct.Token, ptr %19, i32 0, i32 1
  %20 = load ptr, ptr %next7, align 8
  %call8 = call ptr @skip(ptr noundef %20, ptr noundef @.str.24)
  %21 = load ptr, ptr %rest.addr, align 8
  store ptr %call8, ptr %21, align 8
  %22 = load ptr, ptr %node, align 8
  ret ptr %22
}