; Function Attrs: nounwind uwtable
define internal fastcc noalias noundef ptr @asm_stmt(ptr nocapture noundef writeonly %rest, ptr noundef %tok) unnamed_addr #0 {
entry:
  %call.i = tail call noalias noundef dereferenceable_or_null(288) ptr @calloc(i64 noundef 1, i64 noundef 288) #14
  store i32 45, ptr %call.i, align 16
  %tok2.i = getelementptr inbounds %struct.Node, ptr %call.i, i64 0, i32 3
  store ptr %tok, ptr %tok2.i, align 8
  br label %while.cond

while.cond:                                       ; preds = %while.cond.backedge, %entry
  %tok.pn = phi ptr [ %tok, %entry ], [ %tok.addr.0, %while.cond.backedge ]
  %tok.addr.0.in = getelementptr inbounds %struct.Token, ptr %tok.pn, i64 0, i32 1
  %tok.addr.0 = load ptr, ptr %tok.addr.0.in, align 8
  %call1 = tail call zeroext i1 @equal(ptr noundef %tok.addr.0, ptr noundef nonnull @.str.42) #13
  br i1 %call1, label %while.cond.backedge, label %lor.rhs

while.cond.backedge:                              ; preds = %while.cond, %lor.rhs
  br label %while.cond, !llvm.loop !55

lor.rhs:                                          ; preds = %while.cond
  %call2 = tail call zeroext i1 @equal(ptr noundef %tok.addr.0, ptr noundef nonnull @.str.52) #13
  br i1 %call2, label %while.cond.backedge, label %while.end

while.end:                                        ; preds = %lor.rhs
  %call4 = tail call ptr @skip(ptr noundef %tok.addr.0, ptr noundef nonnull @.str.23) #13
  %0 = load i32, ptr %call4, align 16
  %cmp.not = icmp eq i32 %0, 3
  br i1 %cmp.not, label %lor.lhs.false, label %if.then

lor.lhs.false:                                    ; preds = %while.end
  %ty = getelementptr inbounds %struct.Token, ptr %call4, i64 0, i32 6
  %1 = load ptr, ptr %ty, align 16
  %base = getelementptr inbounds %struct.Type, ptr %1, i64 0, i32 6
  %2 = load ptr, ptr %base, align 8
  %3 = load i32, ptr %2, align 8
  %cmp6.not = icmp eq i32 %3, 2
  br i1 %cmp6.not, label %if.end, label %if.then

if.then:                                          ; preds = %lor.lhs.false, %while.end
  tail call void (ptr, ptr, ...) @error_tok(ptr noundef nonnull %call4, ptr noundef nonnull @.str.122) #16
  unreachable

if.end:                                           ; preds = %lor.lhs.false
  %str = getelementptr inbounds %struct.Token, ptr %call4, i64 0, i32 7
  %4 = load ptr, ptr %str, align 8
  %asm_str = getelementptr inbounds %struct.Node, ptr %call.i, i64 0, i32 26
  store ptr %4, ptr %asm_str, align 16
  %next7 = getelementptr inbounds %struct.Token, ptr %call4, i64 0, i32 1
  %5 = load ptr, ptr %next7, align 8
  %call8 = tail call ptr @skip(ptr noundef %5, ptr noundef nonnull @.str.24) #13
  store ptr %call8, ptr %rest, align 8
  ret ptr %call.i
}